ccopy_reg
_reconstructor
p0
(csklearn.ensemble.bagging
BaggingClassifier
p1
c__builtin__
object
p2
Ntp3
Rp4
(dp5
S'warm_start'
p6
I00
sS'max_samples'
p7
F1.0
sS'base_estimator'
p8
g0
(csklearn.ensemble.forest
ExtraTreesClassifier
p9
g2
Ntp10
Rp11
(dp12
g6
I00
sg8
g0
(csklearn.tree.tree
ExtraTreeClassifier
p13
g2
Ntp14
Rp15
(dp16
S'presort'
p17
I00
sS'splitter'
p18
S'random'
p19
sS'tree_'
p20
NsS'n_features_'
p21
NsS'n_outputs_'
p22
NsS'n_classes_'
p23
NsS'min_impurity_split'
p24
F1e-07
sS'classes_'
p25
NsS'max_features_'
p26
NsS'min_samples_leaf'
p27
I1
sS'min_samples_split'
p28
I2
sS'random_state'
p29
NsS'criterion'
p30
S'gini'
p31
sS'min_weight_fraction_leaf'
p32
F0.0
sS'max_leaf_nodes'
p33
NsS'max_features'
p34
S'auto'
p35
sS'_sklearn_version'
p36
S'0.18.2'
p37
sS'max_depth'
p38
NsS'class_weight'
p39
NsbsS'estimators_'
p40
(lp41
sS'n_jobs'
p42
I1
sS'verbose'
p43
I1
sg33
NsS'bootstrap'
p44
I00
sS'oob_score'
p45
I00
sg27
I1
sS'n_estimators'
p46
I150
sg28
I2
sg29
I0
sg30
g31
sS'estimator_params'
p47
(g30
g38
g28
g27
g32
g34
g33
g24
g29
tp48
sg24
F1e-07
sg34
g35
sg36
g37
sg32
F0.0
sg38
Nsg39
Nsbsg40
(lp49
sg43
I1
sg29
I0
sg44
I01
sg45
I00
sg46
I10
sg42
I1
sg36
g37
sg47
(tsg34
F1.0
sS'bootstrap_features'
p50
I00
sb.